; Function Attrs: nounwind uwtable
define internal fastcc void @zend_bad_property_access(i32 %.4.val, ptr nocapture noundef readonly %0, ptr noundef %1) unnamed_addr #0 {
  %3 = tail call ptr @zend_visibility_string(i32 noundef %.4.val) #15
  %4 = getelementptr inbounds i8, ptr %0, i64 8
  %5 = load ptr, ptr %4, align 8
  %6 = getelementptr inbounds i8, ptr %5, i64 24
  %7 = getelementptr inbounds i8, ptr %1, i64 24
  tail call void (ptr, ptr, ...) @zend_throw_error(ptr noundef null, ptr noundef nonnull @.str.17, ptr noundef %3, ptr noundef nonnull %6, ptr noundef nonnull %7) #15
  ret void
}